Certificate:
    Data:
        Version: 3 (0x2)
        Serial Number: 4096 (0x1000)
        Signature Algorithm: sha256WithRSAEncryption
        Issuer: C=US, ST=TX, L=El Paso, O=UTEP, OU=Computer Security, CN=Marco A/emailAddress=maalanis@miners.utep.edu
        Validity
            Not Before: Nov 17 00:10:17 2023 GMT
            Not After : Nov 14 00:10:17 2033 GMT
        Subject: C=US, O=Marco2023 Inc., CN=www.marco2023.com
        Subject Public Key Info:
            Public Key Algorithm: rsaEncryption
                RSA Public-Key: (2048 bit)
                Modulus:
                    00:97:33:b1:68:61:93:6a:f4:38:2e:25:6d:2e:c2:
                    88:fa:9a:3a:15:1f:97:c4:ef:75:9d:7c:bc:79:01:
                    bc:1b:37:26:b2:16:0c:25:0e:76:04:90:57:2f:cc:
                    98:57:e8:3e:88:e9:af:ef:1a:46:f3:33:e8:c0:53:
                    7c:80:27:50:b9:a5:c4:31:eb:9a:b9:24:b4:0d:5c:
                    e9:72:6b:8c:b0:a6:19:84:b5:90:9f:1e:e5:40:de:
                    39:c5:3d:ef:30:01:50:7e:21:d0:3c:25:83:df:3d:
                    cd:35:b4:c4:a8:b1:76:6a:b4:d6:6f:f7:20:39:e5:
                    c0:35:d1:0d:5f:87:fd:d8:1a:c7:8e:28:b2:67:26:
                    36:2c:f2:f6:f9:83:8d:67:ec:f4:e7:12:3b:b4:56:
                    d2:ee:32:2a:07:12:9a:71:10:3c:29:e2:f0:3c:a5:
                    54:be:d8:43:79:68:a4:ad:f8:14:4c:61:7e:a3:0b:
                    2f:d6:43:eb:c9:b9:ad:b9:96:d5:f3:d1:b7:a6:c0:
                    d7:f4:13:e8:f4:ab:ff:28:77:c5:81:56:fe:83:7e:
                    d8:34:32:45:8d:33:62:b3:0a:a3:dc:d5:42:e8:16:
                    3d:58:5d:15:31:b8:30:f7:e3:57:3f:bc:a3:92:2a:
                    80:4c:83:7f:43:dd:00:62:38:ef:f3:76:d9:6c:73:
                    f7:89
                Exponent: 65537 (0x10001)
        X509v3 extensions:
            X509v3 Basic Constraints: 
                CA:FALSE
            Netscape Comment: 
                OpenSSL Generated Certificate
            X509v3 Subject Key Identifier: 
                85:CB:B9:AC:10:02:FB:DB:7B:10:AB:18:7B:7D:DF:C2:B8:E2:D7:C9
            X509v3 Authority Key Identifier: 
                keyid:7A:48:8C:74:59:5C:DE:F4:63:BD:23:EA:93:0C:F8:6F:AF:E6:CF:E5

            X509v3 Subject Alternative Name: 
                DNS:www.marco2023.com, DNS:www.marco2023A.com, DNS:www.marco2023B.com
    Signature Algorithm: sha256WithRSAEncryption
         71:6a:e6:b5:9b:04:d1:03:10:42:cc:60:6e:11:32:df:f6:b7:
         5f:ab:51:c5:17:4e:ad:13:65:c4:16:f9:ae:fc:8c:20:e3:f3:
         83:91:64:00:77:6e:8c:d7:68:15:29:22:be:b8:63:88:4d:95:
         22:be:32:70:d1:de:25:eb:25:a6:20:83:ee:ce:e1:a6:bf:2e:
         bf:e5:db:cb:27:ba:81:cb:20:d3:d2:8f:0e:22:36:e2:d5:26:
         e4:1d:b1:c6:93:ee:4b:c3:87:c4:e7:56:5a:ad:ea:3c:08:c8:
         a3:ad:7f:08:16:e8:d8:b3:b2:b6:9c:b8:41:52:6c:f4:d8:4e:
         40:bb:e0:c4:62:9c:10:5f:e0:75:64:70:3e:6e:e9:1e:c6:93:
         ba:ad:3d:ae:a0:5e:f6:9a:79:0e:dd:9c:47:5f:84:6c:0c:e7:
         d0:20:85:58:e5:2d:1e:09:fd:1d:b7:46:c7:46:fe:53:43:ae:
         22:98:a4:8e:af:57:90:2f:f6:cc:e4:61:d2:e2:ea:76:70:0c:
         d8:31:55:2a:37:83:fc:fe:e0:65:38:9e:4f:15:a7:0f:9a:b1:
         fc:f6:d4:9b:c9:81:36:da:de:19:02:49:f1:31:e4:15:bd:e3:
         3e:2f:48:c7:50:a8:4e:ec:1c:cd:58:1b:8a:76:e9:78:40:d4:
         db:52:37:51:34:f7:2e:3b:a8:23:1e:31:85:48:5f:cb:ed:ab:
         ee:ce:88:cf:6f:9c:29:68:d4:40:5d:29:3d:40:c2:79:cd:7f:
         40:92:70:02:8a:89:37:fd:3f:34:0b:70:e5:5b:59:14:e9:22:
         2b:bd:78:7d:95:1f:47:0e:1c:d7:3a:ad:28:8e:05:8b:27:6b:
         ed:16:02:89:3e:40:e6:ed:1c:03:17:0f:21:2d:31:da:b3:66:
         98:d5:a4:07:d3:f7:49:89:2a:5b:95:8e:77:fe:f5:7d:4f:9d:
         04:95:06:01:e2:90:1e:b6:8e:d3:f4:e7:03:c2:2a:a7:c5:18:
         09:1c:51:41:4f:3d:32:d5:e6:41:9b:de:9c:be:08:2a:8f:3f:
         c2:e8:99:5c:be:0d:12:07:ed:25:06:b7:45:af:7a:8b:90:59:
         f5:68:29:d3:92:5e:71:9d:43:c7:67:21:05:18:f9:d6:00:45:
         fc:f3:95:45:79:18:0c:b8:3a:07:1f:c5:7e:71:54:4c:78:66:
         de:33:36:a3:d9:8b:b2:ad:b0:da:d4:1c:b2:44:fb:1a:9e:31:
         fc:f7:ab:ca:fa:ee:b9:e5:97:03:24:dd:01:67:8b:33:0b:70:
         ce:69:bd:f0:68:bf:75:60:be:b9:27:13:93:cf:22:29:e6:b8:
         5f:54:15:f0:90:97:bc:06
-----BEGIN CERTIFICATE-----
MIIFFDCCAvygAwIBAgICEAAwDQYJKoZIhvcNAQELBQAwgZIxCzAJBgNVBAYTAlVT
MQswCQYDVQQIDAJUWDEQMA4GA1UEBwwHRWwgUGFzbzENMAsGA1UECgwEVVRFUDEa
MBgGA1UECwwRQ29tcHV0ZXIgU2VjdXJpdHkxEDAOBgNVBAMMB01hcmNvIEExJzAl
BgkqhkiG9w0BCQEWGG1hYWxhbmlzQG1pbmVycy51dGVwLmVkdTAeFw0yMzExMTcw
MDEwMTdaFw0zMzExMTQwMDEwMTdaMEIxCzAJBgNVBAYTAlVTMRcwFQYDVQQKDA5N
YXJjbzIwMjMgSW5jLjEaMBgGA1UEAwwRd3d3Lm1hcmNvMjAyMy5jb20wggEiMA0G
CSqGSIb3DQEBAQUAA4IBDwAwggEKAoIBAQCXM7FoYZNq9DguJW0uwoj6mjoVH5fE
73WdfLx5AbwbNyayFgwlDnYEkFcvzJhX6D6I6a/vGkbzM+jAU3yAJ1C5pcQx65q5
JLQNXOlya4ywphmEtZCfHuVA3jnFPe8wAVB+IdA8JYPfPc01tMSosXZqtNZv9yA5
5cA10Q1fh/3YGseOKLJnJjYs8vb5g41n7PTnEju0VtLuMioHEppxEDwp4vA8pVS+
2EN5aKSt+BRMYX6jCy/WQ+vJua25ltXz0bemwNf0E+j0q/8od8WBVv6Dftg0MkWN
M2KzCqPc1ULoFj1YXRUxuDD341c/vKOSKoBMg39D3QBiOO/zdtlsc/eJAgMBAAGj
gcIwgb8wCQYDVR0TBAIwADAsBglghkgBhvhCAQ0EHxYdT3BlblNTTCBHZW5lcmF0
ZWQgQ2VydGlmaWNhdGUwHQYDVR0OBBYEFIXLuawQAvvbexCrGHt938K44tfJMB8G
A1UdIwQYMBaAFHpIjHRZXN70Y70j6pMM+G+v5s/lMEQGA1UdEQQ9MDuCEXd3dy5t
YXJjbzIwMjMuY29tghJ3d3cubWFyY28yMDIzQS5jb22CEnd3dy5tYXJjbzIwMjNC
LmNvbTANBgkqhkiG9w0BAQsFAAOCAgEAcWrmtZsE0QMQQsxgbhEy3/a3X6tRxRdO
rRNlxBb5rvyMIOPzg5FkAHdujNdoFSkivrhjiE2VIr4ycNHeJeslpiCD7s7hpr8u
v+Xbyye6gcsg09KPDiI24tUm5B2xxpPuS8OHxOdWWq3qPAjIo61/CBbo2LOytpy4
QVJs9NhOQLvgxGKcEF/gdWRwPm7pHsaTuq09rqBe9pp5Dt2cR1+EbAzn0CCFWOUt
Hgn9HbdGx0b+U0OuIpikjq9XkC/2zORh0uLqdnAM2DFVKjeD/P7gZTieTxWnD5qx
/PbUm8mBNtreGQJJ8THkFb3jPi9Ix1CoTuwczVgbinbpeEDU21I3UTT3LjuoIx4x
hUhfy+2r7s6Iz2+cKWjUQF0pPUDCec1/QJJwAoqJN/0/NAtw5VtZFOkiK714fZUf
Rw4c1zqtKI4Fiydr7RYCiT5A5u0cAxcPIS0x2rNmmNWkB9P3SYkqW5WOd/71fU+d
BJUGAeKQHraO0/TnA8Iqp8UYCRxRQU89MtXmQZvenL4IKo8/wuiZXL4NEgftJQa3
Ra96i5BZ9Wgp05JecZ1Dx2chBRj51gBF/POVRXkYDLg6Bx/FfnFUTHhm3jM2o9mL
sq2w2tQcskT7Gp4x/PeryvruueWXAyTdAWeLMwtwzmm98Gi/dWC+uScTk88iKea4
X1QV8JCXvAY=
-----END CERTIFICATE-----
